target datalayout = "e-m:e-p270:32:32-p271:32:32-p272:64:64-i64:64-i128:128-f80:128-n8:16:32:64-S128"
target triple = "x86_64-pc-linux-gnu"

; Function Attrs: nounwind uwtable
define internal i32 @dom_eig(double noundef %0, ptr noundef %1, ptr noundef %2, ptr noundef %3, ptr noundef %4, ptr noundef %5, ptr noundef %6, ptr noundef %7, ptr noundef %8) #0 {
  %10 = alloca double, align 8
  %11 = alloca ptr, align 8
  %12 = alloca ptr, align 8
  %13 = alloca ptr, align 8
  %14 = alloca ptr, align 8
  %15 = alloca ptr, align 8
  %16 = alloca ptr, align 8
  %17 = alloca ptr, align 8
  %18 = alloca ptr, align 8
  %19 = alloca ptr, align 8
  %20 = alloca double, align 8
  %21 = alloca double, align 8
  store double %0, ptr %10, align 8, !tbaa !4
  store ptr %1, ptr %11, align 8, !tbaa !10
  store ptr %2, ptr %12, align 8, !tbaa !10
  store ptr %3, ptr %13, align 8, !tbaa !24
  store ptr %4, ptr %14, align 8, !tbaa !24
  store ptr %5, ptr %15, align 8, !tbaa !13
  store ptr %6, ptr %16, align 8, !tbaa !10
  store ptr %7, ptr %17, align 8, !tbaa !10
  store ptr %8, ptr %18, align 8, !tbaa !10
  call void @llvm.lifetime.start.p0(i64 8, ptr %19) #5
  %22 = load ptr, ptr %15, align 8, !tbaa !13
  store ptr %22, ptr %19, align 8, !tbaa !24
  call void @llvm.lifetime.start.p0(i64 8, ptr %20) #5
  %23 = load ptr, ptr %19, align 8, !tbaa !24
  %24 = getelementptr inbounds double, ptr %23, i64 0
  %25 = load double, ptr %24, align 8, !tbaa !4
  store double %25, ptr %20, align 8, !tbaa !4
  call void @llvm.lifetime.start.p0(i64 8, ptr %21) #5
  %26 = load ptr, ptr %19, align 8, !tbaa !24
  %27 = getelementptr inbounds double, ptr %26, i64 1
  %28 = load double, ptr %27, align 8, !tbaa !4
  store double %28, ptr %21, align 8, !tbaa !4
  %29 = load double, ptr %20, align 8, !tbaa !4
  %30 = load double, ptr %21, align 8, !tbaa !4
  %31 = load double, ptr %10, align 8, !tbaa !4
  %32 = fsub double 1.000000e+01, %31
  %33 = fdiv double %32, 1.000000e+01
  %34 = call double @acos(double noundef -1.000000e+00) #5, !tbaa !14
  %35 = fmul double %33, %34
  %36 = call double @cos(double noundef %35) #5, !tbaa !14
  %37 = fneg double %30
  %38 = call double @llvm.fmuladd.f64(double %37, double %36, double %29)
  %39 = load ptr, ptr %13, align 8, !tbaa !24
  store double %38, ptr %39, align 8, !tbaa !4
  %40 = load ptr, ptr %14, align 8, !tbaa !24
  store double 0.000000e+00, ptr %40, align 8, !tbaa !4
  call void @llvm.lifetime.end.p0(i64 8, ptr %21) #5
  call void @llvm.lifetime.end.p0(i64 8, ptr %20) #5
  call void @llvm.lifetime.end.p0(i64 8, ptr %19) #5
  ret i32 0
}