; Function Attrs: mustprogress nofree nounwind willreturn memory(write, argmem: readwrite) uwtable
define internal noundef i32 @dom_eig(double noundef %0, ptr readnone captures(none) %1, ptr readnone captures(none) %2, ptr noundef writeonly captures(none) initializes((0, 8)) %3, ptr noundef writeonly captures(none) initializes((0, 8)) %4, ptr noundef readonly captures(none) %5, ptr readnone captures(none) %6, ptr readnone captures(none) %7, ptr readnone captures(none) %8) #4 {
  %10 = load double, ptr %5, align 8, !tbaa !4
  %11 = getelementptr inbounds nuw i8, ptr %5, i64 8
  %12 = load double, ptr %11, align 8, !tbaa !4
  %13 = fsub double 1.000000e+01, %0
  %14 = fdiv double %13, 1.000000e+01
  %15 = fmul double %14, 0x400921FB54442D18
  %16 = tail call double @cos(double noundef %15) #8, !tbaa !14
  %17 = fneg double %12
  %18 = tail call double @llvm.fmuladd.f64(double %17, double %16, double %10)
  store double %18, ptr %3, align 8, !tbaa !4
  store double 0.000000e+00, ptr %4, align 8, !tbaa !4
  ret i32 0
}